target datalayout = "e-m:e-p270:32:32-p271:32:32-p272:64:64-i64:64-i128:128-f80:128-n8:16:32:64-S128"
target triple = "x86_64-pc-linux-gnu"

%struct.LWLock = type { i16, %struct.pg_atomic_uint32, %struct.proclist_head }
%struct.pg_atomic_uint32 = type { i32 }
%struct.proclist_head = type { i32, i32 }
%struct.ReplicationState = type { i16, i64, i64, i32, %struct.ConditionVariable, %struct.LWLock }
%struct.ConditionVariable = type { i8, %struct.proclist_head }

@session_replication_state = internal global ptr null, align 8

; Function Attrs: nounwind uwtable
define dso_local i64 @replorigin_session_get_progress(i1 noundef zeroext %0) #0 {
  %2 = alloca i8, align 1
  %3 = alloca i64, align 8
  %4 = alloca i64, align 8
  %5 = zext i1 %0 to i8
  store i8 %5, ptr %2, align 1
  call void @llvm.lifetime.start.p0(i64 8, ptr %3) #9
  call void @llvm.lifetime.start.p0(i64 8, ptr %4) #9
  %6 = load ptr, ptr @session_replication_state, align 8
  %7 = getelementptr inbounds nuw %struct.ReplicationState, ptr %6, i32 0, i32 5
  %8 = call zeroext i1 @LWLockAcquire(ptr noundef %7, i32 noundef 1)
  %9 = load ptr, ptr @session_replication_state, align 8
  %10 = getelementptr inbounds nuw %struct.ReplicationState, ptr %9, i32 0, i32 1
  %11 = load i64, ptr %10, align 8
  store i64 %11, ptr %3, align 8
  %12 = load ptr, ptr @session_replication_state, align 8
  %13 = getelementptr inbounds nuw %struct.ReplicationState, ptr %12, i32 0, i32 2
  %14 = load i64, ptr %13, align 8
  store i64 %14, ptr %4, align 8
  %15 = load ptr, ptr @session_replication_state, align 8
  %16 = getelementptr inbounds nuw %struct.ReplicationState, ptr %15, i32 0, i32 5
  call void @LWLockRelease(ptr noundef %16)
  %17 = load i8, ptr %2, align 1, !range !4, !noundef !5
  %18 = trunc i8 %17 to i1
  br i1 %18, label %19, label %24

19:                                               ; preds = %1
  %20 = load i64, ptr %4, align 8
  %21 = icmp ne i64 %20, 0
  br i1 %21, label %22, label %24

22:                                               ; preds = %19
  %23 = load i64, ptr %4, align 8
  call void @XLogFlush(i64 noundef %23)
  br label %24

24:                                               ; preds = %22, %19, %1
  %25 = load i64, ptr %3, align 8
  call void @llvm.lifetime.end.p0(i64 8, ptr %4) #9
  call void @llvm.lifetime.end.p0(i64 8, ptr %3) #9
  ret i64 %25
}