; Function Attrs: nounwind uwtable
define dso_local i64 @replorigin_session_get_progress(i1 noundef zeroext %0) local_unnamed_addr #0 {
  %2 = load ptr, ptr @session_replication_state, align 8
  %3 = getelementptr inbounds nuw i8, ptr %2, i64 40
  %4 = tail call zeroext i1 @LWLockAcquire(ptr noundef nonnull %3, i32 noundef 1) #10
  %5 = load ptr, ptr @session_replication_state, align 8
  %6 = getelementptr inbounds nuw i8, ptr %5, i64 8
  %7 = load i64, ptr %6, align 8
  %8 = getelementptr inbounds nuw i8, ptr %5, i64 16
  %9 = load i64, ptr %8, align 8
  %10 = getelementptr inbounds nuw i8, ptr %5, i64 40
  tail call void @LWLockRelease(ptr noundef nonnull %10) #10
  %11 = icmp ne i64 %9, 0
  %or.cond = select i1 %0, i1 %11, i1 false
  br i1 %or.cond, label %12, label %13

12:                                               ; preds = %1
  tail call void @XLogFlush(i64 noundef %9) #10
  br label %13

13:                                               ; preds = %12, %1
  ret i64 %7
}